target datalayout = "e-m:e-p270:32:32-p271:32:32-p272:64:64-i64:64-i128:128-f80:128-n8:16:32:64-S128"
target triple = "x86_64-pc-linux-gnu"

; Function Attrs: nounwind uwtable
define hidden i32 @dom_processinginstruction_data_read(ptr noundef %0, ptr noundef %1) #0 {
  %3 = alloca i32, align 4
  %4 = alloca ptr, align 8
  %5 = alloca ptr, align 8
  %6 = alloca ptr, align 8
  store ptr %0, ptr %4, align 8
  store ptr %1, ptr %5, align 8
  %7 = load ptr, ptr %4, align 8
  %8 = call ptr @dom_object_get_node(ptr noundef %7)
  store ptr %8, ptr %6, align 8
  %9 = load ptr, ptr %6, align 8
  %10 = icmp eq ptr %9, null
  br i1 %10, label %11, label %12

11:                                               ; preds = %2
  call void @php_dom_throw_error(i32 noundef 11, i32 noundef 1)
  store i32 -1, ptr %3, align 4
  br label %15

12:                                               ; preds = %2
  %13 = load ptr, ptr %6, align 8
  %14 = load ptr, ptr %5, align 8
  call void @php_dom_get_content_into_zval(ptr noundef %13, ptr noundef %14, i1 noundef zeroext false)
  store i32 0, ptr %3, align 4
  br label %15

15:                                               ; preds = %12, %11
  %16 = load i32, ptr %3, align 4
  ret i32 %16
}